target datalayout = "e-m:e-p270:32:32-p271:32:32-p272:64:64-i64:64-i128:128-f80:128-n8:16:32:64-S128"
target triple = "x86_64-pc-linux-gnu"

%"class.std::__cxx11::basic_string" = type { %"struct.std::__cxx11::basic_string<char>::_Alloc_hider", i64, %union.anon.1 }
%"struct.std::__cxx11::basic_string<char>::_Alloc_hider" = type { ptr }
%union.anon.1 = type { i64, [8 x i8] }
%"class.LIEF::ELF::CorePrPsInfo" = type { %"class.LIEF::ELF::Note", i32, i32 }
%"class.LIEF::ELF::Note" = type { %"class.LIEF::Object", %"class.std::__cxx11::basic_string", i32, i32, %"class.std::vector" }
%"class.LIEF::Object" = type { ptr }
%"class.std::vector" = type { %"struct.std::_Vector_base" }
%"struct.std::_Vector_base" = type { %"struct.std::_Vector_base<unsigned char, std::allocator<unsigned char>>::_Vector_impl" }
%"struct.std::_Vector_base<unsigned char, std::allocator<unsigned char>>::_Vector_impl" = type { %"struct.std::_Vector_base<unsigned char, std::allocator<unsigned char>>::_Vector_impl_data" }
%"struct.std::_Vector_base<unsigned char, std::allocator<unsigned char>>::_Vector_impl_data" = type { ptr, ptr, ptr }
%"class.tl::unexpected" = type { i32 }
%"class.tl::expected.5" = type { %"struct.tl::detail::expected_move_assign_base.base.18", [3 x i8] }
%"struct.tl::detail::expected_move_assign_base.base.18" = type { %"struct.tl::detail::expected_copy_assign_base.base.17" }
%"struct.tl::detail::expected_copy_assign_base.base.17" = type { %"struct.tl::detail::expected_move_base.base.16" }
%"struct.tl::detail::expected_move_base.base.16" = type { %"struct.tl::detail::expected_copy_base.base.15" }
%"struct.tl::detail::expected_copy_base.base.15" = type { %"struct.tl::detail::expected_operations_base.base.14" }
%"struct.tl::detail::expected_operations_base.base.14" = type { %"struct.tl::detail::expected_storage_base.base.13" }
%"struct.tl::detail::expected_storage_base.base.13" = type <{ %union.anon.12, i8 }>
%union.anon.12 = type { %"class.tl::unexpected" }

; Function Attrs: mustprogress uwtable
define void @_ZN4LIEF3ELF12CorePrPsInfo4infoERKNS1_6info_tE(ptr noundef nonnull align 8 dereferenceable(80) %0, ptr noundef nonnull align 8 dereferenceable(104) %1) #3 align 2 {
  %3 = alloca ptr, align 8
  %4 = alloca ptr, align 8
  %5 = alloca %"class.tl::expected.5", align 4
  %6 = alloca %"class.tl::expected.5", align 4
  store ptr %0, ptr %3, align 8
  store ptr %1, ptr %4, align 8
  %7 = load ptr, ptr %3, align 8
  %8 = getelementptr inbounds %"class.LIEF::ELF::CorePrPsInfo", ptr %7, i32 0, i32 2
  %9 = load i32, ptr %8, align 4
  %10 = icmp eq i32 %9, 1
  br i1 %10, label %11, label %15

11:                                               ; preds = %2
  %12 = getelementptr inbounds %"class.LIEF::ELF::Note", ptr %7, i32 0, i32 4
  %13 = load ptr, ptr %4, align 8
  %14 = call i64 @_ZN4LIEF3ELF15write_info_implINS0_7details5ELF32EEEN2tl8expectedINS_4ok_tE11lief_errorsEERSt6vectorIhSaIhEERKNS0_12CorePrPsInfo6info_tE(ptr noundef nonnull align 8 dereferenceable(24) %12, ptr noundef nonnull align 8 dereferenceable(104) %13)
  store i64 %14, ptr %5, align 4
  br label %19

15:                                               ; preds = %2
  %16 = getelementptr inbounds %"class.LIEF::ELF::Note", ptr %7, i32 0, i32 4
  %17 = load ptr, ptr %4, align 8
  %18 = call i64 @_ZN4LIEF3ELF15write_info_implINS0_7details5ELF64EEEN2tl8expectedINS_4ok_tE11lief_errorsEERSt6vectorIhSaIhEERKNS0_12CorePrPsInfo6info_tE(ptr noundef nonnull align 8 dereferenceable(24) %16, ptr noundef nonnull align 8 dereferenceable(104) %17)
  store i64 %18, ptr %6, align 4
  br label %19

19:                                               ; preds = %15, %11
  ret void
}