; Function Attrs: mustprogress uwtable
define void @_ZN4LIEF3ELF12CorePrPsInfo4infoERKNS1_6info_tE(ptr noundef nonnull align 8 dereferenceable(80) %0, ptr noundef nonnull align 8 dereferenceable(104) %1) local_unnamed_addr #3 align 2 {
  %3 = getelementptr inbounds i8, ptr %0, i64 76
  %4 = load i32, ptr %3, align 4
  %5 = icmp eq i32 %4, 1
  %6 = getelementptr inbounds i8, ptr %0, i64 48
  br i1 %5, label %7, label %9

7:                                                ; preds = %2
  %8 = tail call i64 @_ZN4LIEF3ELF15write_info_implINS0_7details5ELF32EEEN2tl8expectedINS_4ok_tE11lief_errorsEERSt6vectorIhSaIhEERKNS0_12CorePrPsInfo6info_tE(ptr noundef nonnull align 8 dereferenceable(24) %6, ptr noundef nonnull align 8 dereferenceable(104) %1)
  br label %11

9:                                                ; preds = %2
  %10 = tail call i64 @_ZN4LIEF3ELF15write_info_implINS0_7details5ELF64EEEN2tl8expectedINS_4ok_tE11lief_errorsEERSt6vectorIhSaIhEERKNS0_12CorePrPsInfo6info_tE(ptr noundef nonnull align 8 dereferenceable(24) %6, ptr noundef nonnull align 8 dereferenceable(104) %1)
  br label %11

11:                                               ; preds = %9, %7
  ret void
}